target datalayout = "e-m:e-p270:32:32-p271:32:32-p272:64:64-i64:64-i128:128-f80:128-n8:16:32:64-S128"
target triple = "x86_64-pc-linux-gnu"

%struct.uv__queue = type { ptr, ptr }
%struct.uv__io_s = type { ptr, %struct.uv__queue, %struct.uv__queue, i32, i32, i32 }
%struct.uv_udp_s = type { ptr, ptr, i32, ptr, %struct.uv__queue, %union.anon.1, ptr, i32, i64, i64, ptr, ptr, %struct.uv__io_s, %struct.uv__queue, %struct.uv__queue }
%union.anon.1 = type { [4 x ptr] }

; Function Attrs: nounwind uwtable
define dso_local i32 @uv_udp_recv_stop(ptr noundef %0) #0 {
  %2 = alloca i32, align 4
  %3 = alloca ptr, align 8
  store ptr %0, ptr %3, align 8
  %4 = load ptr, ptr %3, align 8
  %5 = getelementptr inbounds nuw %struct.uv_udp_s, ptr %4, i32 0, i32 2
  %6 = load i32, ptr %5, align 8
  %7 = icmp ne i32 %6, 15
  br i1 %7, label %8, label %9

8:                                                ; preds = %1
  store i32 -22, ptr %2, align 4
  br label %12

9:                                                ; preds = %1
  %10 = load ptr, ptr %3, align 8
  %11 = call i32 @uv__udp_recv_stop(ptr noundef %10)
  store i32 %11, ptr %2, align 4
  br label %12

12:                                               ; preds = %9, %8
  %13 = load i32, ptr %2, align 4
  ret i32 %13
}